
re2:     file format elf64-x86-64


Disassembly of section .init:

0000000000400960 <.init>:
  400960:	48 83 ec 08          	sub    $0x8,%rsp
  400964:	48 8b 05 85 16 20 00 	mov    0x201685(%rip),%rax        # 601ff0 <_ZNSt7__cxx1112basic_stringIcSt11char_traitsIcESaIcEE5beginEv@plt+0x2015a0>
  40096b:	48 85 c0             	test   %rax,%rax
  40096e:	74 02                	je     400972 <exit@plt-0x1e>
  400970:	ff d0                	callq  *%rax
  400972:	48 83 c4 08          	add    $0x8,%rsp
  400976:	c3                   	retq   

Disassembly of section .plt:

0000000000400980 <exit@plt-0x10>:
  400980:	ff 35 82 16 20 00    	pushq  0x201682(%rip)        # 602008 <_ZNSt7__cxx1112basic_stringIcSt11char_traitsIcESaIcEE5beginEv@plt+0x2015b8>
  400986:	ff 25 84 16 20 00    	jmpq   *0x201684(%rip)        # 602010 <_ZNSt7__cxx1112basic_stringIcSt11char_traitsIcESaIcEE5beginEv@plt+0x2015c0>
  40098c:	0f 1f 40 00          	nopl   0x0(%rax)

0000000000400990 <exit@plt>:
  400990:	ff 25 82 16 20 00    	jmpq   *0x201682(%rip)        # 602018 <_ZNSt7__cxx1112basic_stringIcSt11char_traitsIcESaIcEE5beginEv@plt+0x2015c8>
  400996:	68 00 00 00 00       	pushq  $0x0
  40099b:	e9 e0 ff ff ff       	jmpq   400980 <exit@plt-0x10>

00000000004009a0 <_ZNSt8ios_base4InitC1Ev@plt>:
  4009a0:	ff 25 7a 16 20 00    	jmpq   *0x20167a(%rip)        # 602020 <_ZNSt7__cxx1112basic_stringIcSt11char_traitsIcESaIcEE5beginEv@plt+0x2015d0>
  4009a6:	68 01 00 00 00       	pushq  $0x1
  4009ab:	e9 d0 ff ff ff       	jmpq   400980 <exit@plt-0x10>

00000000004009b0 <__cxa_atexit@plt>:
  4009b0:	ff 25 72 16 20 00    	jmpq   *0x201672(%rip)        # 602028 <_ZNSt7__cxx1112basic_stringIcSt11char_traitsIcESaIcEE5beginEv@plt+0x2015d8>
  4009b6:	68 02 00 00 00       	pushq  $0x2
  4009bb:	e9 c0 ff ff ff       	jmpq   400980 <exit@plt-0x10>

00000000004009c0 <_ZNSt8ios_base4InitD1Ev@plt>:
  4009c0:	ff 25 6a 16 20 00    	jmpq   *0x20166a(%rip)        # 602030 <_ZNSt7__cxx1112basic_stringIcSt11char_traitsIcESaIcEE5beginEv@plt+0x2015e0>
  4009c6:	68 03 00 00 00       	pushq  $0x3
  4009cb:	e9 b0 ff ff ff       	jmpq   400980 <exit@plt-0x10>

00000000004009d0 <_ZStlsISt11char_traitsIcEERSt13basic_ostreamIcT_ES5_PKc@plt>:
  4009d0:	ff 25 62 16 20 00    	jmpq   *0x201662(%rip)        # 602038 <_ZNSt7__cxx1112basic_stringIcSt11char_traitsIcESaIcEE5beginEv@plt+0x2015e8>
  4009d6:	68 04 00 00 00       	pushq  $0x4
  4009db:	e9 a0 ff ff ff       	jmpq   400980 <exit@plt-0x10>

00000000004009e0 <_ZNSt7__cxx1112basic_stringIcSt11char_traitsIcESaIcEED1Ev@plt>:
  4009e0:	ff 25 5a 16 20 00    	jmpq   *0x20165a(%rip)        # 602040 <_ZNSt7__cxx1112basic_stringIcSt11char_traitsIcESaIcEE5beginEv@plt+0x2015f0>
  4009e6:	68 05 00 00 00       	pushq  $0x5
  4009eb:	e9 90 ff ff ff       	jmpq   400980 <exit@plt-0x10>

00000000004009f0 <_ZNSt7__cxx1112basic_stringIcSt11char_traitsIcESaIcEE3endEv@plt>:
  4009f0:	ff 25 52 16 20 00    	jmpq   *0x201652(%rip)        # 602048 <_ZNSt7__cxx1112basic_stringIcSt11char_traitsIcESaIcEE5beginEv@plt+0x2015f8>
  4009f6:	68 06 00 00 00       	pushq  $0x6
  4009fb:	e9 80 ff ff ff       	jmpq   400980 <exit@plt-0x10>

0000000000400a00 <_ZNSaIcED1Ev@plt>:
  400a00:	ff 25 4a 16 20 00    	jmpq   *0x20164a(%rip)        # 602050 <_ZNSt7__cxx1112basic_stringIcSt11char_traitsIcESaIcEE5beginEv@plt+0x201600>
  400a06:	68 07 00 00 00       	pushq  $0x7
  400a0b:	e9 70 ff ff ff       	jmpq   400980 <exit@plt-0x10>

0000000000400a10 <_ZNSt7__cxx1112basic_stringIcSt11char_traitsIcESaIcEEC1EPKcRKS3_@plt>:
  400a10:	ff 25 42 16 20 00    	jmpq   *0x201642(%rip)        # 602058 <_ZNSt7__cxx1112basic_stringIcSt11char_traitsIcESaIcEE5beginEv@plt+0x201608>
  400a16:	68 08 00 00 00       	pushq  $0x8
  400a1b:	e9 60 ff ff ff       	jmpq   400980 <exit@plt-0x10>

0000000000400a20 <_ZNSaIcEC1Ev@plt>:
  400a20:	ff 25 3a 16 20 00    	jmpq   *0x20163a(%rip)        # 602060 <_ZNSt7__cxx1112basic_stringIcSt11char_traitsIcESaIcEE5beginEv@plt+0x201610>
  400a26:	68 09 00 00 00       	pushq  $0x9
  400a2b:	e9 50 ff ff ff       	jmpq   400980 <exit@plt-0x10>

0000000000400a30 <__gxx_personality_v0@plt>:
  400a30:	ff 25 32 16 20 00    	jmpq   *0x201632(%rip)        # 602068 <_ZNSt7__cxx1112basic_stringIcSt11char_traitsIcESaIcEE5beginEv@plt+0x201618>
  400a36:	68 0a 00 00 00       	pushq  $0xa
  400a3b:	e9 40 ff ff ff       	jmpq   400980 <exit@plt-0x10>

0000000000400a40 <_Unwind_Resume@plt>:
  400a40:	ff 25 2a 16 20 00    	jmpq   *0x20162a(%rip)        # 602070 <_ZNSt7__cxx1112basic_stringIcSt11char_traitsIcESaIcEE5beginEv@plt+0x201620>
  400a46:	68 0b 00 00 00       	pushq  $0xb
  400a4b:	e9 30 ff ff ff       	jmpq   400980 <exit@plt-0x10>

0000000000400a50 <_ZNSt7__cxx1112basic_stringIcSt11char_traitsIcESaIcEE5beginEv@plt>:
  400a50:	ff 25 22 16 20 00    	jmpq   *0x201622(%rip)        # 602078 <_ZNSt7__cxx1112basic_stringIcSt11char_traitsIcESaIcEE5beginEv@plt+0x201628>
  400a56:	68 0c 00 00 00       	pushq  $0xc
  400a5b:	e9 20 ff ff ff       	jmpq   400980 <exit@plt-0x10>

Disassembly of section .text:

0000000000400a60 <.text>:
  400a60:	31 ed                	xor    %ebp,%ebp
  400a62:	49 89 d1             	mov    %rdx,%r9
  400a65:	5e                   	pop    %rsi
  400a66:	48 89 e2             	mov    %rsp,%rdx
  400a69:	48 83 e4 f0          	and    $0xfffffffffffffff0,%rsp
  400a6d:	50                   	push   %rax
  400a6e:	54                   	push   %rsp
  400a6f:	49 c7 c0 30 0e 40 00 	mov    $0x400e30,%r8
  400a76:	48 c7 c1 c0 0d 40 00 	mov    $0x400dc0,%rcx
  400a7d:	48 c7 c7 89 0b 40 00 	mov    $0x400b89,%rdi
  400a84:	ff 15 6e 15 20 00    	callq  *0x20156e(%rip)        # 601ff8 <_ZNSt7__cxx1112basic_stringIcSt11char_traitsIcESaIcEE5beginEv@plt+0x2015a8>
  400a8a:	f4                   	hlt    
  400a8b:	0f 1f 44 00 00       	nopl   0x0(%rax,%rax,1)
  400a90:	b8 47 21 60 00       	mov    $0x602147,%eax
  400a95:	55                   	push   %rbp
  400a96:	48 2d 40 21 60 00    	sub    $0x602140,%rax
  400a9c:	48 83 f8 0e          	cmp    $0xe,%rax
  400aa0:	48 89 e5             	mov    %rsp,%rbp
  400aa3:	76 1b                	jbe    400ac0 <_ZNSt7__cxx1112basic_stringIcSt11char_traitsIcESaIcEE5beginEv@plt+0x70>
  400aa5:	b8 00 00 00 00       	mov    $0x0,%eax
  400aaa:	48 85 c0             	test   %rax,%rax
  400aad:	74 11                	je     400ac0 <_ZNSt7__cxx1112basic_stringIcSt11char_traitsIcESaIcEE5beginEv@plt+0x70>
  400aaf:	5d                   	pop    %rbp
  400ab0:	bf 40 21 60 00       	mov    $0x602140,%edi
  400ab5:	ff e0                	jmpq   *%rax
  400ab7:	66 0f 1f 84 00 00 00 	nopw   0x0(%rax,%rax,1)
  400abe:	00 00 
  400ac0:	5d                   	pop    %rbp
  400ac1:	c3                   	retq   
  400ac2:	0f 1f 40 00          	nopl   0x0(%rax)
  400ac6:	66 2e 0f 1f 84 00 00 	nopw   %cs:0x0(%rax,%rax,1)
  400acd:	00 00 00 
  400ad0:	be 40 21 60 00       	mov    $0x602140,%esi
  400ad5:	55                   	push   %rbp
  400ad6:	48 81 ee 40 21 60 00 	sub    $0x602140,%rsi
  400add:	48 c1 fe 03          	sar    $0x3,%rsi
  400ae1:	48 89 e5             	mov    %rsp,%rbp
  400ae4:	48 89 f0             	mov    %rsi,%rax
  400ae7:	48 c1 e8 3f          	shr    $0x3f,%rax
  400aeb:	48 01 c6             	add    %rax,%rsi
  400aee:	48 d1 fe             	sar    %rsi
  400af1:	74 15                	je     400b08 <_ZNSt7__cxx1112basic_stringIcSt11char_traitsIcESaIcEE5beginEv@plt+0xb8>
  400af3:	b8 00 00 00 00       	mov    $0x0,%eax
  400af8:	48 85 c0             	test   %rax,%rax
  400afb:	74 0b                	je     400b08 <_ZNSt7__cxx1112basic_stringIcSt11char_traitsIcESaIcEE5beginEv@plt+0xb8>
  400afd:	5d                   	pop    %rbp
  400afe:	bf 40 21 60 00       	mov    $0x602140,%edi
  400b03:	ff e0                	jmpq   *%rax
  400b05:	0f 1f 00             	nopl   (%rax)
  400b08:	5d                   	pop    %rbp
  400b09:	c3                   	retq   
  400b0a:	66 0f 1f 44 00 00    	nopw   0x0(%rax,%rax,1)
  400b10:	80 3d 39 17 20 00 00 	cmpb   $0x0,0x201739(%rip)        # 602250 <_ZSt4cout@@GLIBCXX_3.4+0x110>
  400b17:	75 11                	jne    400b2a <_ZNSt7__cxx1112basic_stringIcSt11char_traitsIcESaIcEE5beginEv@plt+0xda>
  400b19:	55                   	push   %rbp
  400b1a:	48 89 e5             	mov    %rsp,%rbp
  400b1d:	e8 6e ff ff ff       	callq  400a90 <_ZNSt7__cxx1112basic_stringIcSt11char_traitsIcESaIcEE5beginEv@plt+0x40>
  400b22:	5d                   	pop    %rbp
  400b23:	c6 05 26 17 20 00 01 	movb   $0x1,0x201726(%rip)        # 602250 <_ZSt4cout@@GLIBCXX_3.4+0x110>
  400b2a:	f3 c3                	repz retq 
  400b2c:	0f 1f 40 00          	nopl   0x0(%rax)
  400b30:	bf e8 1d 60 00       	mov    $0x601de8,%edi
  400b35:	48 83 3f 00          	cmpq   $0x0,(%rdi)
  400b39:	75 05                	jne    400b40 <_ZNSt7__cxx1112basic_stringIcSt11char_traitsIcESaIcEE5beginEv@plt+0xf0>
  400b3b:	eb 93                	jmp    400ad0 <_ZNSt7__cxx1112basic_stringIcSt11char_traitsIcESaIcEE5beginEv@plt+0x80>
  400b3d:	0f 1f 00             	nopl   (%rax)
  400b40:	b8 00 00 00 00       	mov    $0x0,%eax
  400b45:	48 85 c0             	test   %rax,%rax
  400b48:	74 f1                	je     400b3b <_ZNSt7__cxx1112basic_stringIcSt11char_traitsIcESaIcEE5beginEv@plt+0xeb>
  400b4a:	55                   	push   %rbp
  400b4b:	48 89 e5             	mov    %rsp,%rbp
  400b4e:	ff d0                	callq  *%rax
  400b50:	5d                   	pop    %rbp
  400b51:	e9 7a ff ff ff       	jmpq   400ad0 <_ZNSt7__cxx1112basic_stringIcSt11char_traitsIcESaIcEE5beginEv@plt+0x80>
  400b56:	55                   	push   %rbp
  400b57:	48 89 e5             	mov    %rsp,%rbp
  400b5a:	be d0 0e 40 00       	mov    $0x400ed0,%esi
  400b5f:	bf 40 21 60 00       	mov    $0x602140,%edi
  400b64:	e8 67 fe ff ff       	callq  4009d0 <_ZStlsISt11char_traitsIcEERSt13basic_ostreamIcT_ES5_PKc@plt>
  400b69:	bf 00 00 00 00       	mov    $0x0,%edi
  400b6e:	e8 1d fe ff ff       	callq  400990 <exit@plt>
  400b73:	55                   	push   %rbp
  400b74:	48 89 e5             	mov    %rsp,%rbp
  400b77:	be e8 0e 40 00       	mov    $0x400ee8,%esi
  400b7c:	bf 40 21 60 00       	mov    $0x602140,%edi
  400b81:	e8 4a fe ff ff       	callq  4009d0 <_ZStlsISt11char_traitsIcEERSt13basic_ostreamIcT_ES5_PKc@plt>
  400b86:	90                   	nop
  400b87:	5d                   	pop    %rbp
  400b88:	c3                   	retq   
  400b89:	55                   	push   %rbp
  400b8a:	48 89 e5             	mov    %rsp,%rbp
  400b8d:	53                   	push   %rbx
  400b8e:	48 83 ec 68          	sub    $0x68,%rsp
  400b92:	89 7d 9c             	mov    %edi,-0x64(%rbp)
  400b95:	48 89 75 90          	mov    %rsi,-0x70(%rbp)
  400b99:	83 7d 9c 02          	cmpl   $0x2,-0x64(%rbp)
  400b9d:	74 38                	je     400bd7 <_ZNSt7__cxx1112basic_stringIcSt11char_traitsIcESaIcEE5beginEv@plt+0x187>
  400b9f:	48 8b 45 90          	mov    -0x70(%rbp),%rax
  400ba3:	48 8b 18             	mov    (%rax),%rbx
  400ba6:	be 09 0f 40 00       	mov    $0x400f09,%esi
  400bab:	bf 40 21 60 00       	mov    $0x602140,%edi
  400bb0:	e8 1b fe ff ff       	callq  4009d0 <_ZStlsISt11char_traitsIcEERSt13basic_ostreamIcT_ES5_PKc@plt>
  400bb5:	48 89 de             	mov    %rbx,%rsi
  400bb8:	48 89 c7             	mov    %rax,%rdi
  400bbb:	e8 10 fe ff ff       	callq  4009d0 <_ZStlsISt11char_traitsIcEERSt13basic_ostreamIcT_ES5_PKc@plt>
  400bc0:	be 11 0f 40 00       	mov    $0x400f11,%esi
  400bc5:	48 89 c7             	mov    %rax,%rdi
  400bc8:	e8 03 fe ff ff       	callq  4009d0 <_ZStlsISt11char_traitsIcEERSt13basic_ostreamIcT_ES5_PKc@plt>
  400bcd:	bf 00 00 00 00       	mov    $0x0,%edi
  400bd2:	e8 b9 fd ff ff       	callq  400990 <exit@plt>
  400bd7:	48 8d 45 df          	lea    -0x21(%rbp),%rax
  400bdb:	48 89 c7             	mov    %rax,%rdi
  400bde:	e8 3d fe ff ff       	callq  400a20 <_ZNSaIcEC1Ev@plt>
  400be3:	48 8b 45 90          	mov    -0x70(%rbp),%rax
  400be7:	48 83 c0 08          	add    $0x8,%rax
  400beb:	48 8b 08             	mov    (%rax),%rcx
  400bee:	48 8d 55 df          	lea    -0x21(%rbp),%rdx
  400bf2:	48 8d 45 b0          	lea    -0x50(%rbp),%rax
  400bf6:	48 89 ce             	mov    %rcx,%rsi
  400bf9:	48 89 c7             	mov    %rax,%rdi
  400bfc:	e8 0f fe ff ff       	callq  400a10 <_ZNSt7__cxx1112basic_stringIcSt11char_traitsIcESaIcEEC1EPKcRKS3_@plt>
  400c01:	48 8d 45 df          	lea    -0x21(%rbp),%rax
  400c05:	48 89 c7             	mov    %rax,%rdi
  400c08:	e8 f3 fd ff ff       	callq  400a00 <_ZNSaIcED1Ev@plt>
  400c0d:	c7 45 ec 00 00 00 00 	movl   $0x0,-0x14(%rbp)
  400c14:	48 8d 45 b0          	lea    -0x50(%rbp),%rax
  400c18:	48 89 c7             	mov    %rax,%rdi
  400c1b:	e8 30 fe ff ff       	callq  400a50 <_ZNSt7__cxx1112basic_stringIcSt11char_traitsIcESaIcEE5beginEv@plt>
  400c20:	48 89 45 a0          	mov    %rax,-0x60(%rbp)
  400c24:	48 8d 45 b0          	lea    -0x50(%rbp),%rax
  400c28:	48 89 c7             	mov    %rax,%rdi
  400c2b:	e8 c0 fd ff ff       	callq  4009f0 <_ZNSt7__cxx1112basic_stringIcSt11char_traitsIcESaIcEE3endEv@plt>
  400c30:	48 89 45 e0          	mov    %rax,-0x20(%rbp)
  400c34:	48 8d 55 e0          	lea    -0x20(%rbp),%rdx
  400c38:	48 8d 45 a0          	lea    -0x60(%rbp),%rax
  400c3c:	48 89 d6             	mov    %rdx,%rsi
  400c3f:	48 89 c7             	mov    %rax,%rdi
  400c42:	e8 f6 00 00 00       	callq  400d3d <_ZNSt7__cxx1112basic_stringIcSt11char_traitsIcESaIcEE5beginEv@plt+0x2ed>
  400c47:	84 c0                	test   %al,%al
  400c49:	74 4a                	je     400c95 <_ZNSt7__cxx1112basic_stringIcSt11char_traitsIcESaIcEE5beginEv@plt+0x245>
  400c4b:	48 8d 45 a0          	lea    -0x60(%rbp),%rax
  400c4f:	48 89 c7             	mov    %rax,%rdi
  400c52:	e8 43 01 00 00       	callq  400d9a <_ZNSt7__cxx1112basic_stringIcSt11char_traitsIcESaIcEE5beginEv@plt+0x34a>
  400c57:	0f b6 10             	movzbl (%rax),%edx
  400c5a:	48 8b 0d 3f 14 20 00 	mov    0x20143f(%rip),%rcx        # 6020a0 <_ZNSt7__cxx1112basic_stringIcSt11char_traitsIcESaIcEE5beginEv@plt+0x201650>
  400c61:	8b 45 ec             	mov    -0x14(%rbp),%eax
  400c64:	48 98                	cltq   
  400c66:	8b 04 85 c0 20 60 00 	mov    0x6020c0(,%rax,4),%eax
  400c6d:	48 98                	cltq   
  400c6f:	48 01 c8             	add    %rcx,%rax
  400c72:	0f b6 00             	movzbl (%rax),%eax
  400c75:	38 c2                	cmp    %al,%dl
  400c77:	0f 95 c0             	setne  %al
  400c7a:	84 c0                	test   %al,%al
  400c7c:	74 05                	je     400c83 <_ZNSt7__cxx1112basic_stringIcSt11char_traitsIcESaIcEE5beginEv@plt+0x233>
  400c7e:	e8 d3 fe ff ff       	callq  400b56 <_ZNSt7__cxx1112basic_stringIcSt11char_traitsIcESaIcEE5beginEv@plt+0x106>
  400c83:	83 45 ec 01          	addl   $0x1,-0x14(%rbp)
  400c87:	48 8d 45 a0          	lea    -0x60(%rbp),%rax
  400c8b:	48 89 c7             	mov    %rax,%rdi
  400c8e:	e8 e7 00 00 00       	callq  400d7a <_ZNSt7__cxx1112basic_stringIcSt11char_traitsIcESaIcEE5beginEv@plt+0x32a>
  400c93:	eb 8f                	jmp    400c24 <_ZNSt7__cxx1112basic_stringIcSt11char_traitsIcESaIcEE5beginEv@plt+0x1d4>
  400c95:	e8 d9 fe ff ff       	callq  400b73 <_ZNSt7__cxx1112basic_stringIcSt11char_traitsIcESaIcEE5beginEv@plt+0x123>
  400c9a:	bb 00 00 00 00       	mov    $0x0,%ebx
  400c9f:	48 8d 45 b0          	lea    -0x50(%rbp),%rax
  400ca3:	48 89 c7             	mov    %rax,%rdi
  400ca6:	e8 35 fd ff ff       	callq  4009e0 <_ZNSt7__cxx1112basic_stringIcSt11char_traitsIcESaIcEED1Ev@plt>
  400cab:	89 d8                	mov    %ebx,%eax
  400cad:	eb 34                	jmp    400ce3 <_ZNSt7__cxx1112basic_stringIcSt11char_traitsIcESaIcEE5beginEv@plt+0x293>
  400caf:	48 89 c3             	mov    %rax,%rbx
  400cb2:	48 8d 45 df          	lea    -0x21(%rbp),%rax
  400cb6:	48 89 c7             	mov    %rax,%rdi
  400cb9:	e8 42 fd ff ff       	callq  400a00 <_ZNSaIcED1Ev@plt>
  400cbe:	48 89 d8             	mov    %rbx,%rax
  400cc1:	48 89 c7             	mov    %rax,%rdi
  400cc4:	e8 77 fd ff ff       	callq  400a40 <_Unwind_Resume@plt>
  400cc9:	48 89 c3             	mov    %rax,%rbx
  400ccc:	48 8d 45 b0          	lea    -0x50(%rbp),%rax
  400cd0:	48 89 c7             	mov    %rax,%rdi
  400cd3:	e8 08 fd ff ff       	callq  4009e0 <_ZNSt7__cxx1112basic_stringIcSt11char_traitsIcESaIcEED1Ev@plt>
  400cd8:	48 89 d8             	mov    %rbx,%rax
  400cdb:	48 89 c7             	mov    %rax,%rdi
  400cde:	e8 5d fd ff ff       	callq  400a40 <_Unwind_Resume@plt>
  400ce3:	48 83 c4 68          	add    $0x68,%rsp
  400ce7:	5b                   	pop    %rbx
  400ce8:	5d                   	pop    %rbp
  400ce9:	c3                   	retq   
  400cea:	55                   	push   %rbp
  400ceb:	48 89 e5             	mov    %rsp,%rbp
  400cee:	48 83 ec 10          	sub    $0x10,%rsp
  400cf2:	89 7d fc             	mov    %edi,-0x4(%rbp)
  400cf5:	89 75 f8             	mov    %esi,-0x8(%rbp)
  400cf8:	83 7d fc 01          	cmpl   $0x1,-0x4(%rbp)
  400cfc:	75 27                	jne    400d25 <_ZNSt7__cxx1112basic_stringIcSt11char_traitsIcESaIcEE5beginEv@plt+0x2d5>
  400cfe:	81 7d f8 ff ff 00 00 	cmpl   $0xffff,-0x8(%rbp)
  400d05:	75 1e                	jne    400d25 <_ZNSt7__cxx1112basic_stringIcSt11char_traitsIcESaIcEE5beginEv@plt+0x2d5>
  400d07:	bf 51 22 60 00       	mov    $0x602251,%edi
  400d0c:	e8 8f fc ff ff       	callq  4009a0 <_ZNSt8ios_base4InitC1Ev@plt>
  400d11:	ba 48 0e 40 00       	mov    $0x400e48,%edx
  400d16:	be 51 22 60 00       	mov    $0x602251,%esi
  400d1b:	bf c0 09 40 00       	mov    $0x4009c0,%edi
  400d20:	e8 8b fc ff ff       	callq  4009b0 <__cxa_atexit@plt>
  400d25:	90                   	nop
  400d26:	c9                   	leaveq 
  400d27:	c3                   	retq   
  400d28:	55                   	push   %rbp
  400d29:	48 89 e5             	mov    %rsp,%rbp
  400d2c:	be ff ff 00 00       	mov    $0xffff,%esi
  400d31:	bf 01 00 00 00       	mov    $0x1,%edi
  400d36:	e8 af ff ff ff       	callq  400cea <_ZNSt7__cxx1112basic_stringIcSt11char_traitsIcESaIcEE5beginEv@plt+0x29a>
  400d3b:	5d                   	pop    %rbp
  400d3c:	c3                   	retq   
  400d3d:	55                   	push   %rbp
  400d3e:	48 89 e5             	mov    %rsp,%rbp
  400d41:	53                   	push   %rbx
  400d42:	48 83 ec 18          	sub    $0x18,%rsp
  400d46:	48 89 7d e8          	mov    %rdi,-0x18(%rbp)
  400d4a:	48 89 75 e0          	mov    %rsi,-0x20(%rbp)
  400d4e:	48 8b 45 e8          	mov    -0x18(%rbp),%rax
  400d52:	48 89 c7             	mov    %rax,%rdi
  400d55:	e8 52 00 00 00       	callq  400dac <_ZNSt7__cxx1112basic_stringIcSt11char_traitsIcESaIcEE5beginEv@plt+0x35c>
  400d5a:	48 8b 18             	mov    (%rax),%rbx
  400d5d:	48 8b 45 e0          	mov    -0x20(%rbp),%rax
  400d61:	48 89 c7             	mov    %rax,%rdi
  400d64:	e8 43 00 00 00       	callq  400dac <_ZNSt7__cxx1112basic_stringIcSt11char_traitsIcESaIcEE5beginEv@plt+0x35c>
  400d69:	48 8b 00             	mov    (%rax),%rax
  400d6c:	48 39 c3             	cmp    %rax,%rbx
  400d6f:	0f 95 c0             	setne  %al
  400d72:	48 83 c4 18          	add    $0x18,%rsp
  400d76:	5b                   	pop    %rbx
  400d77:	5d                   	pop    %rbp
  400d78:	c3                   	retq   
  400d79:	90                   	nop
  400d7a:	55                   	push   %rbp
  400d7b:	48 89 e5             	mov    %rsp,%rbp
  400d7e:	48 89 7d f8          	mov    %rdi,-0x8(%rbp)
  400d82:	48 8b 45 f8          	mov    -0x8(%rbp),%rax
  400d86:	48 8b 00             	mov    (%rax),%rax
  400d89:	48 8d 50 01          	lea    0x1(%rax),%rdx
  400d8d:	48 8b 45 f8          	mov    -0x8(%rbp),%rax
  400d91:	48 89 10             	mov    %rdx,(%rax)
  400d94:	48 8b 45 f8          	mov    -0x8(%rbp),%rax
  400d98:	5d                   	pop    %rbp
  400d99:	c3                   	retq   
  400d9a:	55                   	push   %rbp
  400d9b:	48 89 e5             	mov    %rsp,%rbp
  400d9e:	48 89 7d f8          	mov    %rdi,-0x8(%rbp)
  400da2:	48 8b 45 f8          	mov    -0x8(%rbp),%rax
  400da6:	48 8b 00             	mov    (%rax),%rax
  400da9:	5d                   	pop    %rbp
  400daa:	c3                   	retq   
  400dab:	90                   	nop
  400dac:	55                   	push   %rbp
  400dad:	48 89 e5             	mov    %rsp,%rbp
  400db0:	48 89 7d f8          	mov    %rdi,-0x8(%rbp)
  400db4:	48 8b 45 f8          	mov    -0x8(%rbp),%rax
  400db8:	5d                   	pop    %rbp
  400db9:	c3                   	retq   
  400dba:	66 0f 1f 44 00 00    	nopw   0x0(%rax,%rax,1)
  400dc0:	41 57                	push   %r15
  400dc2:	41 56                	push   %r14
  400dc4:	41 89 ff             	mov    %edi,%r15d
  400dc7:	41 55                	push   %r13
  400dc9:	41 54                	push   %r12
  400dcb:	4c 8d 25 fe 0f 20 00 	lea    0x200ffe(%rip),%r12        # 601dd0 <_ZNSt7__cxx1112basic_stringIcSt11char_traitsIcESaIcEE5beginEv@plt+0x201380>
  400dd2:	55                   	push   %rbp
  400dd3:	48 8d 2d 06 10 20 00 	lea    0x201006(%rip),%rbp        # 601de0 <_ZNSt7__cxx1112basic_stringIcSt11char_traitsIcESaIcEE5beginEv@plt+0x201390>
  400dda:	53                   	push   %rbx
  400ddb:	49 89 f6             	mov    %rsi,%r14
  400dde:	49 89 d5             	mov    %rdx,%r13
  400de1:	4c 29 e5             	sub    %r12,%rbp
  400de4:	48 83 ec 08          	sub    $0x8,%rsp
  400de8:	48 c1 fd 03          	sar    $0x3,%rbp
  400dec:	e8 6f fb ff ff       	callq  400960 <exit@plt-0x30>
  400df1:	48 85 ed             	test   %rbp,%rbp
  400df4:	74 20                	je     400e16 <_ZNSt7__cxx1112basic_stringIcSt11char_traitsIcESaIcEE5beginEv@plt+0x3c6>
  400df6:	31 db                	xor    %ebx,%ebx
  400df8:	0f 1f 84 00 00 00 00 	nopl   0x0(%rax,%rax,1)
  400dff:	00 
  400e00:	4c 89 ea             	mov    %r13,%rdx
  400e03:	4c 89 f6             	mov    %r14,%rsi
  400e06:	44 89 ff             	mov    %r15d,%edi
  400e09:	41 ff 14 dc          	callq  *(%r12,%rbx,8)
  400e0d:	48 83 c3 01          	add    $0x1,%rbx
  400e11:	48 39 dd             	cmp    %rbx,%rbp
  400e14:	75 ea                	jne    400e00 <_ZNSt7__cxx1112basic_stringIcSt11char_traitsIcESaIcEE5beginEv@plt+0x3b0>
  400e16:	48 83 c4 08          	add    $0x8,%rsp
  400e1a:	5b                   	pop    %rbx
  400e1b:	5d                   	pop    %rbp
  400e1c:	41 5c                	pop    %r12
  400e1e:	41 5d                	pop    %r13
  400e20:	41 5e                	pop    %r14
  400e22:	41 5f                	pop    %r15
  400e24:	c3                   	retq   
  400e25:	90                   	nop
  400e26:	66 2e 0f 1f 84 00 00 	nopw   %cs:0x0(%rax,%rax,1)
  400e2d:	00 00 00 
  400e30:	f3 c3                	repz retq 

Disassembly of section .fini:

0000000000400e34 <.fini>:
  400e34:	48 83 ec 08          	sub    $0x8,%rsp
  400e38:	48 83 c4 08          	add    $0x8,%rsp
  400e3c:	c3                   	retq   
