
catalyst:     file format elf64-x86-64


Disassembly of section .init:

0000000000400690 <.init>:
  400690:	48 83 ec 08          	sub    $0x8,%rsp
  400694:	48 8b 05 5d 19 20 00 	mov    0x20195d(%rip),%rax        # 601ff8 <rand@plt+0x201888>
  40069b:	48 85 c0             	test   %rax,%rax
  40069e:	74 02                	je     4006a2 <putchar@plt-0x1e>
  4006a0:	ff d0                	callq  *%rax
  4006a2:	48 83 c4 08          	add    $0x8,%rsp
  4006a6:	c3                   	retq   

Disassembly of section .plt:

00000000004006b0 <putchar@plt-0x10>:
  4006b0:	ff 35 52 19 20 00    	pushq  0x201952(%rip)        # 602008 <rand@plt+0x201898>
  4006b6:	ff 25 54 19 20 00    	jmpq   *0x201954(%rip)        # 602010 <rand@plt+0x2018a0>
  4006bc:	0f 1f 40 00          	nopl   0x0(%rax)

00000000004006c0 <putchar@plt>:
  4006c0:	ff 25 52 19 20 00    	jmpq   *0x201952(%rip)        # 602018 <rand@plt+0x2018a8>
  4006c6:	68 00 00 00 00       	pushq  $0x0
  4006cb:	e9 e0 ff ff ff       	jmpq   4006b0 <putchar@plt-0x10>

00000000004006d0 <puts@plt>:
  4006d0:	ff 25 4a 19 20 00    	jmpq   *0x20194a(%rip)        # 602020 <rand@plt+0x2018b0>
  4006d6:	68 01 00 00 00       	pushq  $0x1
  4006db:	e9 d0 ff ff ff       	jmpq   4006b0 <putchar@plt-0x10>

00000000004006e0 <strlen@plt>:
  4006e0:	ff 25 42 19 20 00    	jmpq   *0x201942(%rip)        # 602028 <rand@plt+0x2018b8>
  4006e6:	68 02 00 00 00       	pushq  $0x2
  4006eb:	e9 c0 ff ff ff       	jmpq   4006b0 <putchar@plt-0x10>

00000000004006f0 <printf@plt>:
  4006f0:	ff 25 3a 19 20 00    	jmpq   *0x20193a(%rip)        # 602030 <rand@plt+0x2018c0>
  4006f6:	68 03 00 00 00       	pushq  $0x3
  4006fb:	e9 b0 ff ff ff       	jmpq   4006b0 <putchar@plt-0x10>

0000000000400700 <srand@plt>:
  400700:	ff 25 32 19 20 00    	jmpq   *0x201932(%rip)        # 602038 <rand@plt+0x2018c8>
  400706:	68 04 00 00 00       	pushq  $0x4
  40070b:	e9 a0 ff ff ff       	jmpq   4006b0 <putchar@plt-0x10>

0000000000400710 <time@plt>:
  400710:	ff 25 2a 19 20 00    	jmpq   *0x20192a(%rip)        # 602040 <rand@plt+0x2018d0>
  400716:	68 05 00 00 00       	pushq  $0x5
  40071b:	e9 90 ff ff ff       	jmpq   4006b0 <putchar@plt-0x10>

0000000000400720 <malloc@plt>:
  400720:	ff 25 22 19 20 00    	jmpq   *0x201922(%rip)        # 602048 <rand@plt+0x2018d8>
  400726:	68 06 00 00 00       	pushq  $0x6
  40072b:	e9 80 ff ff ff       	jmpq   4006b0 <putchar@plt-0x10>

0000000000400730 <fflush@plt>:
  400730:	ff 25 1a 19 20 00    	jmpq   *0x20191a(%rip)        # 602050 <rand@plt+0x2018e0>
  400736:	68 07 00 00 00       	pushq  $0x7
  40073b:	e9 70 ff ff ff       	jmpq   4006b0 <putchar@plt-0x10>

0000000000400740 <__isoc99_scanf@plt>:
  400740:	ff 25 12 19 20 00    	jmpq   *0x201912(%rip)        # 602058 <rand@plt+0x2018e8>
  400746:	68 08 00 00 00       	pushq  $0x8
  40074b:	e9 60 ff ff ff       	jmpq   4006b0 <putchar@plt-0x10>

0000000000400750 <exit@plt>:
  400750:	ff 25 0a 19 20 00    	jmpq   *0x20190a(%rip)        # 602060 <rand@plt+0x2018f0>
  400756:	68 09 00 00 00       	pushq  $0x9
  40075b:	e9 50 ff ff ff       	jmpq   4006b0 <putchar@plt-0x10>

0000000000400760 <sleep@plt>:
  400760:	ff 25 02 19 20 00    	jmpq   *0x201902(%rip)        # 602068 <rand@plt+0x2018f8>
  400766:	68 0a 00 00 00       	pushq  $0xa
  40076b:	e9 40 ff ff ff       	jmpq   4006b0 <putchar@plt-0x10>

0000000000400770 <rand@plt>:
  400770:	ff 25 fa 18 20 00    	jmpq   *0x2018fa(%rip)        # 602070 <rand@plt+0x201900>
  400776:	68 0b 00 00 00       	pushq  $0xb
  40077b:	e9 30 ff ff ff       	jmpq   4006b0 <putchar@plt-0x10>

Disassembly of section .text:

0000000000400780 <.text>:
  400780:	31 ed                	xor    %ebp,%ebp
  400782:	49 89 d1             	mov    %rdx,%r9
  400785:	5e                   	pop    %rsi
  400786:	48 89 e2             	mov    %rsp,%rdx
  400789:	48 83 e4 f0          	and    $0xfffffffffffffff0,%rsp
  40078d:	50                   	push   %rax
  40078e:	54                   	push   %rsp
  40078f:	49 c7 c0 30 10 40 00 	mov    $0x401030,%r8
  400796:	48 c7 c1 c0 0f 40 00 	mov    $0x400fc0,%rcx
  40079d:	48 c7 c7 93 0d 40 00 	mov    $0x400d93,%rdi
  4007a4:	ff 15 46 18 20 00    	callq  *0x201846(%rip)        # 601ff0 <rand@plt+0x201880>
  4007aa:	f4                   	hlt    
  4007ab:	0f 1f 44 00 00       	nopl   0x0(%rax,%rax,1)
  4007b0:	b8 cf 20 60 00       	mov    $0x6020cf,%eax
  4007b5:	55                   	push   %rbp
  4007b6:	48 2d c8 20 60 00    	sub    $0x6020c8,%rax
  4007bc:	48 83 f8 0e          	cmp    $0xe,%rax
  4007c0:	48 89 e5             	mov    %rsp,%rbp
  4007c3:	76 1b                	jbe    4007e0 <rand@plt+0x70>
  4007c5:	b8 00 00 00 00       	mov    $0x0,%eax
  4007ca:	48 85 c0             	test   %rax,%rax
  4007cd:	74 11                	je     4007e0 <rand@plt+0x70>
  4007cf:	5d                   	pop    %rbp
  4007d0:	bf c8 20 60 00       	mov    $0x6020c8,%edi
  4007d5:	ff e0                	jmpq   *%rax
  4007d7:	66 0f 1f 84 00 00 00 	nopw   0x0(%rax,%rax,1)
  4007de:	00 00 
  4007e0:	5d                   	pop    %rbp
  4007e1:	c3                   	retq   
  4007e2:	0f 1f 40 00          	nopl   0x0(%rax)
  4007e6:	66 2e 0f 1f 84 00 00 	nopw   %cs:0x0(%rax,%rax,1)
  4007ed:	00 00 00 
  4007f0:	be c8 20 60 00       	mov    $0x6020c8,%esi
  4007f5:	55                   	push   %rbp
  4007f6:	48 81 ee c8 20 60 00 	sub    $0x6020c8,%rsi
  4007fd:	48 c1 fe 03          	sar    $0x3,%rsi
  400801:	48 89 e5             	mov    %rsp,%rbp
  400804:	48 89 f0             	mov    %rsi,%rax
  400807:	48 c1 e8 3f          	shr    $0x3f,%rax
  40080b:	48 01 c6             	add    %rax,%rsi
  40080e:	48 d1 fe             	sar    %rsi
  400811:	74 15                	je     400828 <rand@plt+0xb8>
  400813:	b8 00 00 00 00       	mov    $0x0,%eax
  400818:	48 85 c0             	test   %rax,%rax
  40081b:	74 0b                	je     400828 <rand@plt+0xb8>
  40081d:	5d                   	pop    %rbp
  40081e:	bf c8 20 60 00       	mov    $0x6020c8,%edi
  400823:	ff e0                	jmpq   *%rax
  400825:	0f 1f 00             	nopl   (%rax)
  400828:	5d                   	pop    %rbp
  400829:	c3                   	retq   
  40082a:	66 0f 1f 44 00 00    	nopw   0x0(%rax,%rax,1)
  400830:	80 3d 99 18 20 00 00 	cmpb   $0x0,0x201899(%rip)        # 6020d0 <stdout@@GLIBC_2.2.5+0x8>
  400837:	75 11                	jne    40084a <rand@plt+0xda>
  400839:	55                   	push   %rbp
  40083a:	48 89 e5             	mov    %rsp,%rbp
  40083d:	e8 6e ff ff ff       	callq  4007b0 <rand@plt+0x40>
  400842:	5d                   	pop    %rbp
  400843:	c6 05 86 18 20 00 01 	movb   $0x1,0x201886(%rip)        # 6020d0 <stdout@@GLIBC_2.2.5+0x8>
  40084a:	f3 c3                	repz retq 
  40084c:	0f 1f 40 00          	nopl   0x0(%rax)
  400850:	bf 18 1e 60 00       	mov    $0x601e18,%edi
  400855:	48 83 3f 00          	cmpq   $0x0,(%rdi)
  400859:	75 05                	jne    400860 <rand@plt+0xf0>
  40085b:	eb 93                	jmp    4007f0 <rand@plt+0x80>
  40085d:	0f 1f 00             	nopl   (%rax)
  400860:	b8 00 00 00 00       	mov    $0x0,%eax
  400865:	48 85 c0             	test   %rax,%rax
  400868:	74 f1                	je     40085b <rand@plt+0xeb>
  40086a:	55                   	push   %rbp
  40086b:	48 89 e5             	mov    %rsp,%rbp
  40086e:	ff d0                	callq  *%rax
  400870:	5d                   	pop    %rbp
  400871:	e9 7a ff ff ff       	jmpq   4007f0 <rand@plt+0x80>
  400876:	55                   	push   %rbp
  400877:	48 89 e5             	mov    %rsp,%rbp
  40087a:	53                   	push   %rbx
  40087b:	48 83 ec 28          	sub    $0x28,%rsp
  40087f:	48 89 7d d8          	mov    %rdi,-0x28(%rbp)
  400883:	48 89 75 d0          	mov    %rsi,-0x30(%rbp)
  400887:	bf 50 10 40 00       	mov    $0x401050,%edi
  40088c:	b8 00 00 00 00       	mov    $0x0,%eax
  400891:	e8 5a fe ff ff       	callq  4006f0 <printf@plt>
  400896:	c7 45 ec 00 00 00 00 	movl   $0x0,-0x14(%rbp)
  40089d:	eb 2f                	jmp    4008ce <rand@plt+0x15e>
  40089f:	8b 45 ec             	mov    -0x14(%rbp),%eax
  4008a2:	48 98                	cltq   
  4008a4:	0f b6 80 a0 20 60 00 	movzbl 0x6020a0(%rax),%eax
  4008ab:	0f b6 d0             	movzbl %al,%edx
  4008ae:	8b 45 ec             	mov    -0x14(%rbp),%eax
  4008b1:	48 63 c8             	movslq %eax,%rcx
  4008b4:	48 8b 45 d0          	mov    -0x30(%rbp),%rax
  4008b8:	48 01 c8             	add    %rcx,%rax
  4008bb:	0f b6 00             	movzbl (%rax),%eax
  4008be:	0f be c0             	movsbl %al,%eax
  4008c1:	31 d0                	xor    %edx,%eax
  4008c3:	89 c7                	mov    %eax,%edi
  4008c5:	e8 f6 fd ff ff       	callq  4006c0 <putchar@plt>
  4008ca:	83 45 ec 01          	addl   $0x1,-0x14(%rbp)
  4008ce:	8b 45 ec             	mov    -0x14(%rbp),%eax
  4008d1:	48 63 d8             	movslq %eax,%rbx
  4008d4:	48 8b 45 d0          	mov    -0x30(%rbp),%rax
  4008d8:	48 89 c7             	mov    %rax,%rdi
  4008db:	e8 00 fe ff ff       	callq  4006e0 <strlen@plt>
  4008e0:	48 39 c3             	cmp    %rax,%rbx
  4008e3:	72 ba                	jb     40089f <rand@plt+0x12f>
  4008e5:	bf 67 10 40 00       	mov    $0x401067,%edi
  4008ea:	e8 e1 fd ff ff       	callq  4006d0 <puts@plt>
  4008ef:	90                   	nop
  4008f0:	48 83 c4 28          	add    $0x28,%rsp
  4008f4:	5b                   	pop    %rbx
  4008f5:	5d                   	pop    %rbp
  4008f6:	c3                   	retq   
  4008f7:	55                   	push   %rbp
  4008f8:	48 89 e5             	mov    %rsp,%rbp
  4008fb:	48 83 ec 20          	sub    $0x20,%rsp
  4008ff:	48 89 7d e8          	mov    %rdi,-0x18(%rbp)
  400903:	c7 45 fc 00 00 00 00 	movl   $0x0,-0x4(%rbp)
  40090a:	eb 54                	jmp    400960 <rand@plt+0x1f0>
  40090c:	8b 45 fc             	mov    -0x4(%rbp),%eax
  40090f:	48 63 d0             	movslq %eax,%rdx
  400912:	48 8b 45 e8          	mov    -0x18(%rbp),%rax
  400916:	48 01 d0             	add    %rdx,%rax
  400919:	0f b6 00             	movzbl (%rax),%eax
  40091c:	3c 60                	cmp    $0x60,%al
  40091e:	7e 14                	jle    400934 <rand@plt+0x1c4>
  400920:	8b 45 fc             	mov    -0x4(%rbp),%eax
  400923:	48 63 d0             	movslq %eax,%rdx
  400926:	48 8b 45 e8          	mov    -0x18(%rbp),%rax
  40092a:	48 01 d0             	add    %rdx,%rax
  40092d:	0f b6 00             	movzbl (%rax),%eax
  400930:	3c 7a                	cmp    $0x7a,%al
  400932:	7e 28                	jle    40095c <rand@plt+0x1ec>
  400934:	8b 45 fc             	mov    -0x4(%rbp),%eax
  400937:	48 63 d0             	movslq %eax,%rdx
  40093a:	48 8b 45 e8          	mov    -0x18(%rbp),%rax
  40093e:	48 01 d0             	add    %rdx,%rax
  400941:	0f b6 00             	movzbl (%rax),%eax
  400944:	3c 5f                	cmp    $0x5f,%al
  400946:	74 14                	je     40095c <rand@plt+0x1ec>
  400948:	bf 69 10 40 00       	mov    $0x401069,%edi
  40094d:	e8 7e fd ff ff       	callq  4006d0 <puts@plt>
  400952:	bf 00 00 00 00       	mov    $0x0,%edi
  400957:	e8 f4 fd ff ff       	callq  400750 <exit@plt>
  40095c:	83 45 fc 01          	addl   $0x1,-0x4(%rbp)
  400960:	8b 45 fc             	mov    -0x4(%rbp),%eax
  400963:	48 63 d0             	movslq %eax,%rdx
  400966:	48 8b 45 e8          	mov    -0x18(%rbp),%rax
  40096a:	48 01 d0             	add    %rdx,%rax
  40096d:	0f b6 00             	movzbl (%rax),%eax
  400970:	84 c0                	test   %al,%al
  400972:	75 98                	jne    40090c <rand@plt+0x19c>
  400974:	90                   	nop
  400975:	c9                   	leaveq 
  400976:	c3                   	retq   
  400977:	55                   	push   %rbp
  400978:	48 89 e5             	mov    %rsp,%rbp
  40097b:	53                   	push   %rbx
  40097c:	48 83 ec 38          	sub    $0x38,%rsp
  400980:	48 89 7d c8          	mov    %rdi,-0x38(%rbp)
  400984:	48 89 75 c0          	mov    %rsi,-0x40(%rbp)
  400988:	48 8b 45 c8          	mov    -0x38(%rbp),%rax
  40098c:	48 89 45 e0          	mov    %rax,-0x20(%rbp)
  400990:	48 8b 45 c0          	mov    -0x40(%rbp),%rax
  400994:	48 89 45 d8          	mov    %rax,-0x28(%rbp)
  400998:	c7 45 ec 00 00 00 00 	movl   $0x0,-0x14(%rbp)
  40099f:	e9 90 00 00 00       	jmpq   400a34 <rand@plt+0x2c4>
  4009a4:	8b 45 ec             	mov    -0x14(%rbp),%eax
  4009a7:	48 63 d0             	movslq %eax,%rdx
  4009aa:	48 8b 45 c0          	mov    -0x40(%rbp),%rax
  4009ae:	48 01 d0             	add    %rdx,%rax
  4009b1:	0f b6 00             	movzbl (%rax),%eax
  4009b4:	3c 60                	cmp    $0x60,%al
  4009b6:	7e 14                	jle    4009cc <rand@plt+0x25c>
  4009b8:	8b 45 ec             	mov    -0x14(%rbp),%eax
  4009bb:	48 63 d0             	movslq %eax,%rdx
  4009be:	48 8b 45 c0          	mov    -0x40(%rbp),%rax
  4009c2:	48 01 d0             	add    %rdx,%rax
  4009c5:	0f b6 00             	movzbl (%rax),%eax
  4009c8:	3c 7a                	cmp    $0x7a,%al
  4009ca:	7e 64                	jle    400a30 <rand@plt+0x2c0>
  4009cc:	8b 45 ec             	mov    -0x14(%rbp),%eax
  4009cf:	48 63 d0             	movslq %eax,%rdx
  4009d2:	48 8b 45 c0          	mov    -0x40(%rbp),%rax
  4009d6:	48 01 d0             	add    %rdx,%rax
  4009d9:	0f b6 00             	movzbl (%rax),%eax
  4009dc:	3c 40                	cmp    $0x40,%al
  4009de:	7e 14                	jle    4009f4 <rand@plt+0x284>
  4009e0:	8b 45 ec             	mov    -0x14(%rbp),%eax
  4009e3:	48 63 d0             	movslq %eax,%rdx
  4009e6:	48 8b 45 c0          	mov    -0x40(%rbp),%rax
  4009ea:	48 01 d0             	add    %rdx,%rax
  4009ed:	0f b6 00             	movzbl (%rax),%eax
  4009f0:	3c 5a                	cmp    $0x5a,%al
  4009f2:	7e 3c                	jle    400a30 <rand@plt+0x2c0>
  4009f4:	8b 45 ec             	mov    -0x14(%rbp),%eax
  4009f7:	48 63 d0             	movslq %eax,%rdx
  4009fa:	48 8b 45 c0          	mov    -0x40(%rbp),%rax
  4009fe:	48 01 d0             	add    %rdx,%rax
  400a01:	0f b6 00             	movzbl (%rax),%eax
  400a04:	3c 2f                	cmp    $0x2f,%al
  400a06:	7e 14                	jle    400a1c <rand@plt+0x2ac>
  400a08:	8b 45 ec             	mov    -0x14(%rbp),%eax
  400a0b:	48 63 d0             	movslq %eax,%rdx
  400a0e:	48 8b 45 c0          	mov    -0x40(%rbp),%rax
  400a12:	48 01 d0             	add    %rdx,%rax
  400a15:	0f b6 00             	movzbl (%rax),%eax
  400a18:	3c 39                	cmp    $0x39,%al
  400a1a:	7e 14                	jle    400a30 <rand@plt+0x2c0>
  400a1c:	bf 69 10 40 00       	mov    $0x401069,%edi
  400a21:	e8 aa fc ff ff       	callq  4006d0 <puts@plt>
  400a26:	bf 00 00 00 00       	mov    $0x0,%edi
  400a2b:	e8 20 fd ff ff       	callq  400750 <exit@plt>
  400a30:	83 45 ec 01          	addl   $0x1,-0x14(%rbp)
  400a34:	8b 45 ec             	mov    -0x14(%rbp),%eax
  400a37:	48 63 d0             	movslq %eax,%rdx
  400a3a:	48 8b 45 c0          	mov    -0x40(%rbp),%rax
  400a3e:	48 01 d0             	add    %rdx,%rax
  400a41:	0f b6 00             	movzbl (%rax),%eax
  400a44:	84 c0                	test   %al,%al
  400a46:	0f 85 58 ff ff ff    	jne    4009a4 <rand@plt+0x234>
  400a4c:	48 8b 45 e0          	mov    -0x20(%rbp),%rax
  400a50:	8b 10                	mov    (%rax),%edx
  400a52:	48 8b 45 e0          	mov    -0x20(%rbp),%rax
  400a56:	48 83 c0 04          	add    $0x4,%rax
  400a5a:	8b 00                	mov    (%rax),%eax
  400a5c:	01 c2                	add    %eax,%edx
  400a5e:	48 8b 45 e0          	mov    -0x20(%rbp),%rax
  400a62:	48 83 c0 08          	add    $0x8,%rax
  400a66:	8b 00                	mov    (%rax),%eax
  400a68:	01 d0                	add    %edx,%eax
  400a6a:	89 c7                	mov    %eax,%edi
  400a6c:	e8 8f fc ff ff       	callq  400700 <srand@plt>
  400a71:	48 8b 45 d8          	mov    -0x28(%rbp),%rax
  400a75:	8b 18                	mov    (%rax),%ebx
  400a77:	e8 f4 fc ff ff       	callq  400770 <rand@plt>
  400a7c:	29 c3                	sub    %eax,%ebx
  400a7e:	89 d8                	mov    %ebx,%eax
  400a80:	3d 2a 05 eb 55       	cmp    $0x55eb052a,%eax
  400a85:	74 14                	je     400a9b <rand@plt+0x32b>
  400a87:	bf 69 10 40 00       	mov    $0x401069,%edi
  400a8c:	e8 3f fc ff ff       	callq  4006d0 <puts@plt>
  400a91:	bf 00 00 00 00       	mov    $0x0,%edi
  400a96:	e8 b5 fc ff ff       	callq  400750 <exit@plt>
  400a9b:	48 8b 45 d8          	mov    -0x28(%rbp),%rax
  400a9f:	48 83 c0 04          	add    $0x4,%rax
  400aa3:	8b 18                	mov    (%rax),%ebx
  400aa5:	e8 c6 fc ff ff       	callq  400770 <rand@plt>
  400aaa:	29 c3                	sub    %eax,%ebx
  400aac:	89 d8                	mov    %ebx,%eax
  400aae:	3d 39 6c f7 0e       	cmp    $0xef76c39,%eax
  400ab3:	74 14                	je     400ac9 <rand@plt+0x359>
  400ab5:	bf 69 10 40 00       	mov    $0x401069,%edi
  400aba:	e8 11 fc ff ff       	callq  4006d0 <puts@plt>
  400abf:	bf 00 00 00 00       	mov    $0x0,%edi
  400ac4:	e8 87 fc ff ff       	callq  400750 <exit@plt>
  400ac9:	48 8b 45 d8          	mov    -0x28(%rbp),%rax
  400acd:	48 83 c0 08          	add    $0x8,%rax
  400ad1:	8b 18                	mov    (%rax),%ebx
  400ad3:	e8 98 fc ff ff       	callq  400770 <rand@plt>
  400ad8:	29 c3                	sub    %eax,%ebx
  400ada:	89 d8                	mov    %ebx,%eax
  400adc:	3d 64 2d 1e cc       	cmp    $0xcc1e2d64,%eax
  400ae1:	74 14                	je     400af7 <rand@plt+0x387>
  400ae3:	bf 69 10 40 00       	mov    $0x401069,%edi
  400ae8:	e8 e3 fb ff ff       	callq  4006d0 <puts@plt>
  400aed:	bf 00 00 00 00       	mov    $0x0,%edi
  400af2:	e8 59 fc ff ff       	callq  400750 <exit@plt>
  400af7:	48 8b 45 d8          	mov    -0x28(%rbp),%rax
  400afb:	48 83 c0 0c          	add    $0xc,%rax
  400aff:	8b 18                	mov    (%rax),%ebx
  400b01:	e8 6a fc ff ff       	callq  400770 <rand@plt>
  400b06:	29 c3                	sub    %eax,%ebx
  400b08:	89 d8                	mov    %ebx,%eax
  400b0a:	3d f5 c6 b6 c7       	cmp    $0xc7b6c6f5,%eax
  400b0f:	74 14                	je     400b25 <rand@plt+0x3b5>
  400b11:	bf 69 10 40 00       	mov    $0x401069,%edi
  400b16:	e8 b5 fb ff ff       	callq  4006d0 <puts@plt>
  400b1b:	bf 00 00 00 00       	mov    $0x0,%edi
  400b20:	e8 2b fc ff ff       	callq  400750 <exit@plt>
  400b25:	48 8b 45 d8          	mov    -0x28(%rbp),%rax
  400b29:	48 83 c0 10          	add    $0x10,%rax
  400b2d:	8b 18                	mov    (%rax),%ebx
  400b2f:	e8 3c fc ff ff       	callq  400770 <rand@plt>
  400b34:	29 c3                	sub    %eax,%ebx
  400b36:	89 d8                	mov    %ebx,%eax
  400b38:	3d fa 1b 94 26       	cmp    $0x26941bfa,%eax
  400b3d:	74 14                	je     400b53 <rand@plt+0x3e3>
  400b3f:	bf 69 10 40 00       	mov    $0x401069,%edi
  400b44:	e8 87 fb ff ff       	callq  4006d0 <puts@plt>
  400b49:	bf 00 00 00 00       	mov    $0x0,%edi
  400b4e:	e8 fd fb ff ff       	callq  400750 <exit@plt>
  400b53:	48 8b 45 d8          	mov    -0x28(%rbp),%rax
  400b57:	48 83 c0 14          	add    $0x14,%rax
  400b5b:	8b 18                	mov    (%rax),%ebx
  400b5d:	e8 0e fc ff ff       	callq  400770 <rand@plt>
  400b62:	29 c3                	sub    %eax,%ebx
  400b64:	89 d8                	mov    %ebx,%eax
  400b66:	3d f3 f0 0c 26       	cmp    $0x260cf0f3,%eax
  400b6b:	74 14                	je     400b81 <rand@plt+0x411>
  400b6d:	bf 69 10 40 00       	mov    $0x401069,%edi
  400b72:	e8 59 fb ff ff       	callq  4006d0 <puts@plt>
  400b77:	bf 00 00 00 00       	mov    $0x0,%edi
  400b7c:	e8 cf fb ff ff       	callq  400750 <exit@plt>
  400b81:	48 8b 45 d8          	mov    -0x28(%rbp),%rax
  400b85:	48 83 c0 18          	add    $0x18,%rax
  400b89:	8b 18                	mov    (%rax),%ebx
  400b8b:	e8 e0 fb ff ff       	callq  400770 <rand@plt>
  400b90:	29 c3                	sub    %eax,%ebx
  400b92:	89 d8                	mov    %ebx,%eax
  400b94:	3d ef ca d4 10       	cmp    $0x10d4caef,%eax
  400b99:	74 14                	je     400baf <rand@plt+0x43f>
  400b9b:	bf 69 10 40 00       	mov    $0x401069,%edi
  400ba0:	e8 2b fb ff ff       	callq  4006d0 <puts@plt>
  400ba5:	bf 00 00 00 00       	mov    $0x0,%edi
  400baa:	e8 a1 fb ff ff       	callq  400750 <exit@plt>
  400baf:	48 8b 45 d8          	mov    -0x28(%rbp),%rax
  400bb3:	48 83 c0 1c          	add    $0x1c,%rax
  400bb7:	8b 18                	mov    (%rax),%ebx
  400bb9:	e8 b2 fb ff ff       	callq  400770 <rand@plt>
  400bbe:	29 c3                	sub    %eax,%ebx
  400bc0:	89 d8                	mov    %ebx,%eax
  400bc2:	3d 24 e8 66 c6       	cmp    $0xc666e824,%eax
  400bc7:	74 14                	je     400bdd <rand@plt+0x46d>
  400bc9:	bf 69 10 40 00       	mov    $0x401069,%edi
  400bce:	e8 fd fa ff ff       	callq  4006d0 <puts@plt>
  400bd3:	bf 00 00 00 00       	mov    $0x0,%edi
  400bd8:	e8 73 fb ff ff       	callq  400750 <exit@plt>
  400bdd:	48 8b 45 d8          	mov    -0x28(%rbp),%rax
  400be1:	48 83 c0 20          	add    $0x20,%rax
  400be5:	8b 18                	mov    (%rax),%ebx
  400be7:	e8 84 fb ff ff       	callq  400770 <rand@plt>
  400bec:	29 c3                	sub    %eax,%ebx
  400bee:	89 d8                	mov    %ebx,%eax
  400bf0:	3d 9c 45 89 fc       	cmp    $0xfc89459c,%eax
  400bf5:	74 14                	je     400c0b <rand@plt+0x49b>
  400bf7:	bf 69 10 40 00       	mov    $0x401069,%edi
  400bfc:	e8 cf fa ff ff       	callq  4006d0 <puts@plt>
  400c01:	bf 00 00 00 00       	mov    $0x0,%edi
  400c06:	e8 45 fb ff ff       	callq  400750 <exit@plt>
  400c0b:	48 8b 45 d8          	mov    -0x28(%rbp),%rax
  400c0f:	48 83 c0 24          	add    $0x24,%rax
  400c13:	8b 18                	mov    (%rax),%ebx
  400c15:	e8 56 fb ff ff       	callq  400770 <rand@plt>
  400c1a:	29 c3                	sub    %eax,%ebx
  400c1c:	89 d8                	mov    %ebx,%eax
  400c1e:	3d 3a 07 13 24       	cmp    $0x2413073a,%eax
  400c23:	74 14                	je     400c39 <rand@plt+0x4c9>
  400c25:	bf 69 10 40 00       	mov    $0x401069,%edi
  400c2a:	e8 a1 fa ff ff       	callq  4006d0 <puts@plt>
  400c2f:	bf 00 00 00 00       	mov    $0x0,%edi
  400c34:	e8 17 fb ff ff       	callq  400750 <exit@plt>
  400c39:	90                   	nop
  400c3a:	48 83 c4 38          	add    $0x38,%rsp
  400c3e:	5b                   	pop    %rbx
  400c3f:	5d                   	pop    %rbp
  400c40:	c3                   	retq   
  400c41:	55                   	push   %rbp
  400c42:	48 89 e5             	mov    %rsp,%rbp
  400c45:	48 83 ec 20          	sub    $0x20,%rsp
  400c49:	89 7d ec             	mov    %edi,-0x14(%rbp)
  400c4c:	8b 45 ec             	mov    -0x14(%rbp),%eax
  400c4f:	c1 f8 02             	sar    $0x2,%eax
  400c52:	89 45 fc             	mov    %eax,-0x4(%rbp)
  400c55:	8b 45 fc             	mov    -0x4(%rbp),%eax
  400c58:	c1 e0 02             	shl    $0x2,%eax
  400c5b:	3b 45 ec             	cmp    -0x14(%rbp),%eax
  400c5e:	75 23                	jne    400c83 <rand@plt+0x513>
  400c60:	8b 45 fc             	mov    -0x4(%rbp),%eax
  400c63:	c1 f8 02             	sar    $0x2,%eax
  400c66:	89 45 f8             	mov    %eax,-0x8(%rbp)
  400c69:	8b 45 f8             	mov    -0x8(%rbp),%eax
  400c6c:	c1 e0 02             	shl    $0x2,%eax
  400c6f:	3b 45 fc             	cmp    -0x4(%rbp),%eax
  400c72:	74 0f                	je     400c83 <rand@plt+0x513>
  400c74:	8b 45 fc             	mov    -0x4(%rbp),%eax
  400c77:	d1 f8                	sar    %eax
  400c79:	85 c0                	test   %eax,%eax
  400c7b:	74 06                	je     400c83 <rand@plt+0x513>
  400c7d:	83 7d f8 00          	cmpl   $0x0,-0x8(%rbp)
  400c81:	74 14                	je     400c97 <rand@plt+0x527>
  400c83:	bf 69 10 40 00       	mov    $0x401069,%edi
  400c88:	e8 43 fa ff ff       	callq  4006d0 <puts@plt>
  400c8d:	bf 00 00 00 00       	mov    $0x0,%edi
  400c92:	e8 b9 fa ff ff       	callq  400750 <exit@plt>
  400c97:	90                   	nop
  400c98:	c9                   	leaveq 
  400c99:	c3                   	retq   
  400c9a:	55                   	push   %rbp
  400c9b:	48 89 e5             	mov    %rsp,%rbp
  400c9e:	48 83 ec 20          	sub    $0x20,%rsp
  400ca2:	48 89 7d e8          	mov    %rdi,-0x18(%rbp)
  400ca6:	c7 45 fc 00 00 00 00 	movl   $0x0,-0x4(%rbp)
  400cad:	eb 18                	jmp    400cc7 <rand@plt+0x557>
  400caf:	8b 45 fc             	mov    -0x4(%rbp),%eax
  400cb2:	48 63 d0             	movslq %eax,%rdx
  400cb5:	48 8b 45 e8          	mov    -0x18(%rbp),%rax
  400cb9:	48 01 d0             	add    %rdx,%rax
  400cbc:	0f b6 00             	movzbl (%rax),%eax
  400cbf:	84 c0                	test   %al,%al
  400cc1:	74 0c                	je     400ccf <rand@plt+0x55f>
  400cc3:	83 45 fc 01          	addl   $0x1,-0x4(%rbp)
  400cc7:	83 7d fc 31          	cmpl   $0x31,-0x4(%rbp)
  400ccb:	7e e2                	jle    400caf <rand@plt+0x53f>
  400ccd:	eb 01                	jmp    400cd0 <rand@plt+0x560>
  400ccf:	90                   	nop
  400cd0:	8b 45 fc             	mov    -0x4(%rbp),%eax
  400cd3:	89 c7                	mov    %eax,%edi
  400cd5:	e8 67 ff ff ff       	callq  400c41 <rand@plt+0x4d1>
  400cda:	90                   	nop
  400cdb:	c9                   	leaveq 
  400cdc:	c3                   	retq   
  400cdd:	55                   	push   %rbp
  400cde:	48 89 e5             	mov    %rsp,%rbp
  400ce1:	48 83 ec 30          	sub    $0x30,%rsp
  400ce5:	48 89 7d d8          	mov    %rdi,-0x28(%rbp)
  400ce9:	48 8b 45 d8          	mov    -0x28(%rbp),%rax
  400ced:	48 89 45 f8          	mov    %rax,-0x8(%rbp)
  400cf1:	48 8b 45 f8          	mov    -0x8(%rbp),%rax
  400cf5:	8b 00                	mov    (%rax),%eax
  400cf7:	89 c0                	mov    %eax,%eax
  400cf9:	48 89 45 f0          	mov    %rax,-0x10(%rbp)
  400cfd:	48 8b 45 f8          	mov    -0x8(%rbp),%rax
  400d01:	48 83 c0 04          	add    $0x4,%rax
  400d05:	8b 00                	mov    (%rax),%eax
  400d07:	89 c0                	mov    %eax,%eax
  400d09:	48 89 45 e8          	mov    %rax,-0x18(%rbp)
  400d0d:	48 8b 45 f8          	mov    -0x8(%rbp),%rax
  400d11:	48 83 c0 08          	add    $0x8,%rax
  400d15:	8b 00                	mov    (%rax),%eax
  400d17:	89 c0                	mov    %eax,%eax
  400d19:	48 89 45 e0          	mov    %rax,-0x20(%rbp)
  400d1d:	48 8b 45 f0          	mov    -0x10(%rbp),%rax
  400d21:	48 2b 45 e8          	sub    -0x18(%rbp),%rax
  400d25:	48 89 c2             	mov    %rax,%rdx
  400d28:	48 8b 45 e0          	mov    -0x20(%rbp),%rax
  400d2c:	48 01 d0             	add    %rdx,%rax
  400d2f:	48 3d 56 4b 66 5c    	cmp    $0x5c664b56,%rax
  400d35:	75 45                	jne    400d7c <rand@plt+0x60c>
  400d37:	48 8b 55 f0          	mov    -0x10(%rbp),%rdx
  400d3b:	48 8b 45 e0          	mov    -0x20(%rbp),%rax
  400d3f:	48 01 c2             	add    %rax,%rdx
  400d42:	48 89 d0             	mov    %rdx,%rax
  400d45:	48 01 c0             	add    %rax,%rax
  400d48:	48 01 c2             	add    %rax,%rdx
  400d4b:	48 8b 45 e8          	mov    -0x18(%rbp),%rax
  400d4f:	48 01 c2             	add    %rax,%rdx
  400d52:	48 b8 b2 c7 00 e7 02 	movabs $0x2e700c7b2,%rax
  400d59:	00 00 00 
  400d5c:	48 39 c2             	cmp    %rax,%rdx
  400d5f:	75 1b                	jne    400d7c <rand@plt+0x60c>
  400d61:	48 8b 45 e8          	mov    -0x18(%rbp),%rax
  400d65:	48 0f af 45 e0       	imul   -0x20(%rbp),%rax
  400d6a:	48 89 c2             	mov    %rax,%rdx
  400d6d:	48 b8 14 d3 6a 9a 68 	movabs $0x32ac30689a6ad314,%rax
  400d74:	30 ac 32 
  400d77:	48 39 c2             	cmp    %rax,%rdx
  400d7a:	74 14                	je     400d90 <rand@plt+0x620>
  400d7c:	bf 69 10 40 00       	mov    $0x401069,%edi
  400d81:	e8 4a f9 ff ff       	callq  4006d0 <puts@plt>
  400d86:	bf 00 00 00 00       	mov    $0x0,%edi
  400d8b:	e8 c0 f9 ff ff       	callq  400750 <exit@plt>
  400d90:	90                   	nop
  400d91:	c9                   	leaveq 
  400d92:	c3                   	retq   
  400d93:	55                   	push   %rbp
  400d94:	48 89 e5             	mov    %rsp,%rbp
  400d97:	48 83 ec 20          	sub    $0x20,%rsp
  400d9b:	bf e8 03 00 00       	mov    $0x3e8,%edi
  400da0:	e8 7b f9 ff ff       	callq  400720 <malloc@plt>
  400da5:	48 89 45 f0          	mov    %rax,-0x10(%rbp)
  400da9:	bf e8 03 00 00       	mov    $0x3e8,%edi
  400dae:	e8 6d f9 ff ff       	callq  400720 <malloc@plt>
  400db3:	48 89 45 e8          	mov    %rax,-0x18(%rbp)
  400db7:	bf 00 00 00 00       	mov    $0x0,%edi
  400dbc:	e8 4f f9 ff ff       	callq  400710 <time@plt>
  400dc1:	89 c7                	mov    %eax,%edi
  400dc3:	e8 38 f9 ff ff       	callq  400700 <srand@plt>
  400dc8:	bf 88 10 40 00       	mov    $0x401088,%edi
  400dcd:	e8 fe f8 ff ff       	callq  4006d0 <puts@plt>
  400dd2:	bf 60 11 40 00       	mov    $0x401160,%edi
  400dd7:	e8 f4 f8 ff ff       	callq  4006d0 <puts@plt>
  400ddc:	bf 58 12 40 00       	mov    $0x401258,%edi
  400de1:	e8 ea f8 ff ff       	callq  4006d0 <puts@plt>
  400de6:	bf 48 13 40 00       	mov    $0x401348,%edi
  400deb:	e8 e0 f8 ff ff       	callq  4006d0 <puts@plt>
  400df0:	bf e0 13 40 00       	mov    $0x4013e0,%edi
  400df5:	e8 d6 f8 ff ff       	callq  4006d0 <puts@plt>
  400dfa:	bf a8 14 40 00       	mov    $0x4014a8,%edi
  400dff:	e8 cc f8 ff ff       	callq  4006d0 <puts@plt>
  400e04:	bf 70 15 40 00       	mov    $0x401570,%edi
  400e09:	e8 c2 f8 ff ff       	callq  4006d0 <puts@plt>
  400e0e:	bf 48 13 40 00       	mov    $0x401348,%edi
  400e13:	e8 b8 f8 ff ff       	callq  4006d0 <puts@plt>
  400e18:	bf 38 16 40 00       	mov    $0x401638,%edi
  400e1d:	e8 ae f8 ff ff       	callq  4006d0 <puts@plt>
  400e22:	bf 08 17 40 00       	mov    $0x401708,%edi
  400e27:	e8 a4 f8 ff ff       	callq  4006d0 <puts@plt>
  400e2c:	bf e0 17 40 00       	mov    $0x4017e0,%edi
  400e31:	e8 9a f8 ff ff       	callq  4006d0 <puts@plt>
  400e36:	bf 90 18 40 00       	mov    $0x401890,%edi
  400e3b:	e8 90 f8 ff ff       	callq  4006d0 <puts@plt>
  400e40:	bf b0 18 40 00       	mov    $0x4018b0,%edi
  400e45:	b8 00 00 00 00       	mov    $0x0,%eax
  400e4a:	e8 a1 f8 ff ff       	callq  4006f0 <printf@plt>
  400e4f:	48 8b 05 72 12 20 00 	mov    0x201272(%rip),%rax        # 6020c8 <stdout@@GLIBC_2.2.5>
  400e56:	48 89 c7             	mov    %rax,%rdi
  400e59:	e8 d2 f8 ff ff       	callq  400730 <fflush@plt>
  400e5e:	c7 45 fc 00 00 00 00 	movl   $0x0,-0x4(%rbp)
  400e65:	eb 3e                	jmp    400ea5 <rand@plt+0x735>
  400e67:	e8 04 f9 ff ff       	callq  400770 <rand@plt>
  400e6c:	89 c6                	mov    %eax,%esi
  400e6e:	8b 55 fc             	mov    -0x4(%rbp),%edx
  400e71:	89 d0                	mov    %edx,%eax
  400e73:	01 c0                	add    %eax,%eax
  400e75:	01 d0                	add    %edx,%eax
  400e77:	8d 48 01             	lea    0x1(%rax),%ecx
  400e7a:	89 f0                	mov    %esi,%eax
  400e7c:	99                   	cltd   
  400e7d:	f7 f9                	idiv   %ecx
  400e7f:	89 d0                	mov    %edx,%eax
  400e81:	89 c7                	mov    %eax,%edi
  400e83:	e8 d8 f8 ff ff       	callq  400760 <sleep@plt>
  400e88:	bf 2e 00 00 00       	mov    $0x2e,%edi
  400e8d:	e8 2e f8 ff ff       	callq  4006c0 <putchar@plt>
  400e92:	48 8b 05 2f 12 20 00 	mov    0x20122f(%rip),%rax        # 6020c8 <stdout@@GLIBC_2.2.5>
  400e99:	48 89 c7             	mov    %rax,%rdi
  400e9c:	e8 8f f8 ff ff       	callq  400730 <fflush@plt>
  400ea1:	83 45 fc 01          	addl   $0x1,-0x4(%rbp)
  400ea5:	83 7d fc 1d          	cmpl   $0x1d,-0x4(%rbp)
  400ea9:	7e bc                	jle    400e67 <rand@plt+0x6f7>
  400eab:	bf 0a 00 00 00       	mov    $0xa,%edi
  400eb0:	e8 0b f8 ff ff       	callq  4006c0 <putchar@plt>
  400eb5:	bf b8 18 40 00       	mov    $0x4018b8,%edi
  400eba:	b8 00 00 00 00       	mov    $0x0,%eax
  400ebf:	e8 2c f8 ff ff       	callq  4006f0 <printf@plt>
  400ec4:	48 8b 45 f0          	mov    -0x10(%rbp),%rax
  400ec8:	48 89 c6             	mov    %rax,%rsi
  400ecb:	bf c3 18 40 00       	mov    $0x4018c3,%edi
  400ed0:	b8 00 00 00 00       	mov    $0x0,%eax
  400ed5:	e8 66 f8 ff ff       	callq  400740 <__isoc99_scanf@plt>
  400eda:	bf c6 18 40 00       	mov    $0x4018c6,%edi
  400edf:	b8 00 00 00 00       	mov    $0x0,%eax
  400ee4:	e8 07 f8 ff ff       	callq  4006f0 <printf@plt>
  400ee9:	48 8b 45 e8          	mov    -0x18(%rbp),%rax
  400eed:	48 89 c6             	mov    %rax,%rsi
  400ef0:	bf c3 18 40 00       	mov    $0x4018c3,%edi
  400ef5:	b8 00 00 00 00       	mov    $0x0,%eax
  400efa:	e8 41 f8 ff ff       	callq  400740 <__isoc99_scanf@plt>
  400eff:	bf d1 18 40 00       	mov    $0x4018d1,%edi
  400f04:	b8 00 00 00 00       	mov    $0x0,%eax
  400f09:	e8 e2 f7 ff ff       	callq  4006f0 <printf@plt>
  400f0e:	48 8b 05 b3 11 20 00 	mov    0x2011b3(%rip),%rax        # 6020c8 <stdout@@GLIBC_2.2.5>
  400f15:	48 89 c7             	mov    %rax,%rdi
  400f18:	e8 13 f8 ff ff       	callq  400730 <fflush@plt>
  400f1d:	c7 45 f8 00 00 00 00 	movl   $0x0,-0x8(%rbp)
  400f24:	eb 38                	jmp    400f5e <rand@plt+0x7ee>
  400f26:	e8 45 f8 ff ff       	callq  400770 <rand@plt>
  400f2b:	89 c2                	mov    %eax,%edx
  400f2d:	8b 45 f8             	mov    -0x8(%rbp),%eax
  400f30:	8d 48 01             	lea    0x1(%rax),%ecx
  400f33:	89 d0                	mov    %edx,%eax
  400f35:	99                   	cltd   
  400f36:	f7 f9                	idiv   %ecx
  400f38:	89 d0                	mov    %edx,%eax
  400f3a:	89 c7                	mov    %eax,%edi
  400f3c:	e8 1f f8 ff ff       	callq  400760 <sleep@plt>
  400f41:	bf 2e 00 00 00       	mov    $0x2e,%edi
  400f46:	e8 75 f7 ff ff       	callq  4006c0 <putchar@plt>
  400f4b:	48 8b 05 76 11 20 00 	mov    0x201176(%rip),%rax        # 6020c8 <stdout@@GLIBC_2.2.5>
  400f52:	48 89 c7             	mov    %rax,%rdi
  400f55:	e8 d6 f7 ff ff       	callq  400730 <fflush@plt>
  400f5a:	83 45 f8 01          	addl   $0x1,-0x8(%rbp)
  400f5e:	83 7d f8 1d          	cmpl   $0x1d,-0x8(%rbp)
  400f62:	7e c2                	jle    400f26 <rand@plt+0x7b6>
  400f64:	bf 0a 00 00 00       	mov    $0xa,%edi
  400f69:	e8 52 f7 ff ff       	callq  4006c0 <putchar@plt>
  400f6e:	48 8b 45 f0          	mov    -0x10(%rbp),%rax
  400f72:	48 89 c7             	mov    %rax,%rdi
  400f75:	e8 20 fd ff ff       	callq  400c9a <rand@plt+0x52a>
  400f7a:	48 8b 45 f0          	mov    -0x10(%rbp),%rax
  400f7e:	48 89 c7             	mov    %rax,%rdi
  400f81:	e8 57 fd ff ff       	callq  400cdd <rand@plt+0x56d>
  400f86:	48 8b 45 f0          	mov    -0x10(%rbp),%rax
  400f8a:	48 89 c7             	mov    %rax,%rdi
  400f8d:	e8 65 f9 ff ff       	callq  4008f7 <rand@plt+0x187>
  400f92:	48 8b 55 e8          	mov    -0x18(%rbp),%rdx
  400f96:	48 8b 45 f0          	mov    -0x10(%rbp),%rax
  400f9a:	48 89 d6             	mov    %rdx,%rsi
  400f9d:	48 89 c7             	mov    %rax,%rdi
  400fa0:	e8 d2 f9 ff ff       	callq  400977 <rand@plt+0x207>
  400fa5:	48 8b 55 e8          	mov    -0x18(%rbp),%rdx
  400fa9:	48 8b 45 f0          	mov    -0x10(%rbp),%rax
  400fad:	48 89 d6             	mov    %rdx,%rsi
  400fb0:	48 89 c7             	mov    %rax,%rdi
  400fb3:	e8 be f8 ff ff       	callq  400876 <rand@plt+0x106>
  400fb8:	b8 00 00 00 00       	mov    $0x0,%eax
  400fbd:	c9                   	leaveq 
  400fbe:	c3                   	retq   
  400fbf:	90                   	nop
  400fc0:	41 57                	push   %r15
  400fc2:	41 56                	push   %r14
  400fc4:	41 89 ff             	mov    %edi,%r15d
  400fc7:	41 55                	push   %r13
  400fc9:	41 54                	push   %r12
  400fcb:	4c 8d 25 36 0e 20 00 	lea    0x200e36(%rip),%r12        # 601e08 <rand@plt+0x201698>
  400fd2:	55                   	push   %rbp
  400fd3:	48 8d 2d 36 0e 20 00 	lea    0x200e36(%rip),%rbp        # 601e10 <rand@plt+0x2016a0>
  400fda:	53                   	push   %rbx
  400fdb:	49 89 f6             	mov    %rsi,%r14
  400fde:	49 89 d5             	mov    %rdx,%r13
  400fe1:	4c 29 e5             	sub    %r12,%rbp
  400fe4:	48 83 ec 08          	sub    $0x8,%rsp
  400fe8:	48 c1 fd 03          	sar    $0x3,%rbp
  400fec:	e8 9f f6 ff ff       	callq  400690 <putchar@plt-0x30>
  400ff1:	48 85 ed             	test   %rbp,%rbp
  400ff4:	74 20                	je     401016 <rand@plt+0x8a6>
  400ff6:	31 db                	xor    %ebx,%ebx
  400ff8:	0f 1f 84 00 00 00 00 	nopl   0x0(%rax,%rax,1)
  400fff:	00 
  401000:	4c 89 ea             	mov    %r13,%rdx
  401003:	4c 89 f6             	mov    %r14,%rsi
  401006:	44 89 ff             	mov    %r15d,%edi
  401009:	41 ff 14 dc          	callq  *(%r12,%rbx,8)
  40100d:	48 83 c3 01          	add    $0x1,%rbx
  401011:	48 39 dd             	cmp    %rbx,%rbp
  401014:	75 ea                	jne    401000 <rand@plt+0x890>
  401016:	48 83 c4 08          	add    $0x8,%rsp
  40101a:	5b                   	pop    %rbx
  40101b:	5d                   	pop    %rbp
  40101c:	41 5c                	pop    %r12
  40101e:	41 5d                	pop    %r13
  401020:	41 5e                	pop    %r14
  401022:	41 5f                	pop    %r15
  401024:	c3                   	retq   
  401025:	90                   	nop
  401026:	66 2e 0f 1f 84 00 00 	nopw   %cs:0x0(%rax,%rax,1)
  40102d:	00 00 00 
  401030:	f3 c3                	repz retq 

Disassembly of section .fini:

0000000000401034 <.fini>:
  401034:	48 83 ec 08          	sub    $0x8,%rsp
  401038:	48 83 c4 08          	add    $0x8,%rsp
  40103c:	c3                   	retq   
